; Function Attrs: nounwind uwtable
define zeroext i8 @l_Lean_PersistentArray_anyM___at_Lean_Meta_getFVarSetToGeneralize___spec__34(ptr noundef %0, ptr noundef %1, ptr noundef readonly captures(none) %2) local_unnamed_addr #0 {
  %4 = getelementptr inbounds nuw i8, ptr %2, i64 8
  %5 = load ptr, ptr %4, align 8, !tbaa !4
  %6 = ptrtoint ptr %1 to i64
  %7 = and i64 %6, 1
  %.not = icmp eq i64 %7, 0
  br i1 %.not, label %8, label %lean_inc.exit27

8:                                                ; preds = %3
  %.val.i = load i32, ptr %1, align 4, !tbaa !8
  %9 = icmp sgt i32 %.val.i, 0
  br i1 %9, label %10, label %12, !prof !11

10:                                               ; preds = %8
  %11 = add nuw i32 %.val.i, 1
  store i32 %11, ptr %1, align 4, !tbaa !8
  br label %lean_inc.exit27

12:                                               ; preds = %8
  %.not.i43 = icmp eq i32 %.val.i, 0
  br i1 %.not.i43, label %lean_inc.exit27, label %13

13:                                               ; preds = %12
  tail call void @lean_inc_ref_cold(ptr noundef nonnull %1) #4
  br label %lean_inc.exit27

lean_inc.exit27:                                  ; preds = %13, %12, %10, %3
  %14 = ptrtoint ptr %0 to i64
  %15 = and i64 %14, 1
  %.not48 = icmp eq i64 %15, 0
  br i1 %.not48, label %16, label %lean_inc.exit

16:                                               ; preds = %lean_inc.exit27
  %.val.i44 = load i32, ptr %0, align 4, !tbaa !8
  %17 = icmp sgt i32 %.val.i44, 0
  br i1 %17, label %18, label %20, !prof !11

18:                                               ; preds = %16
  %19 = add nuw i32 %.val.i44, 1
  store i32 %19, ptr %0, align 4, !tbaa !8
  br label %lean_inc.exit

20:                                               ; preds = %16
  %.not.i45 = icmp eq i32 %.val.i44, 0
  br i1 %.not.i45, label %lean_inc.exit, label %21

21:                                               ; preds = %20
  tail call void @lean_inc_ref_cold(ptr noundef nonnull %0) #4
  br label %lean_inc.exit

lean_inc.exit:                                    ; preds = %21, %20, %18, %lean_inc.exit27
  %22 = tail call zeroext i8 @l_Lean_PersistentArray_anyMAux___at_Lean_Meta_getFVarSetToGeneralize___spec__35(ptr noundef %0, ptr noundef %1, ptr noundef %5)
  %23 = icmp eq i8 %22, 0
  br i1 %23, label %lean_nat_lt.exit, label %42

lean_nat_lt.exit:                                 ; preds = %lean_inc.exit
  %24 = getelementptr inbounds nuw i8, ptr %2, i64 16
  %25 = load ptr, ptr %24, align 8, !tbaa !4
  %26 = getelementptr i8, ptr %25, i64 8
  %.val = load i64, ptr %26, align 8, !tbaa !12
  %.mask = and i64 %.val, 9223372036854775807
  %.not49 = icmp eq i64 %.mask, 0
  br i1 %.not49, label %lean_dec.exit32, label %lean_dec.exit29

lean_dec.exit32:                                  ; preds = %lean_nat_lt.exit
  br i1 %.not, label %27, label %lean_dec.exit31

27:                                               ; preds = %lean_dec.exit32
  %28 = load i32, ptr %1, align 4, !tbaa !8
  %29 = icmp sgt i32 %28, 1
  br i1 %29, label %30, label %32, !prof !11

30:                                               ; preds = %27
  %31 = add nsw i32 %28, -1
  store i32 %31, ptr %1, align 4, !tbaa !8
  br label %lean_dec.exit31

32:                                               ; preds = %27
  %.not.i33 = icmp eq i32 %28, 0
  br i1 %.not.i33, label %lean_dec.exit31, label %33

33:                                               ; preds = %32
  tail call void @lean_dec_ref_cold(ptr noundef nonnull %1) #4
  br label %lean_dec.exit31

lean_dec.exit31:                                  ; preds = %33, %32, %30, %lean_dec.exit32
  br i1 %.not48, label %34, label %lean_dec.exit30

34:                                               ; preds = %lean_dec.exit31
  %35 = load i32, ptr %0, align 4, !tbaa !8
  %36 = icmp sgt i32 %35, 1
  br i1 %36, label %37, label %39, !prof !11

37:                                               ; preds = %34
  %38 = add nsw i32 %35, -1
  store i32 %38, ptr %0, align 4, !tbaa !8
  br label %lean_dec.exit30

39:                                               ; preds = %34
  %.not.i35 = icmp eq i32 %35, 0
  br i1 %.not.i35, label %lean_dec.exit30, label %40

40:                                               ; preds = %39
  tail call void @lean_dec_ref_cold(ptr noundef nonnull %0) #4
  br label %lean_dec.exit30

lean_dec.exit29:                                  ; preds = %lean_nat_lt.exit
  %41 = tail call zeroext i8 @l_Array_anyMUnsafe_any___at_Lean_Meta_getFVarSetToGeneralize___spec__38(ptr noundef %0, ptr noundef %1, ptr noundef nonnull %25, i64 noundef 0, i64 noundef %.mask)
  br label %lean_dec.exit30

42:                                               ; preds = %lean_inc.exit
  br i1 %.not, label %43, label %lean_dec.exit28

43:                                               ; preds = %42
  %44 = load i32, ptr %1, align 4, !tbaa !8
  %45 = icmp sgt i32 %44, 1
  br i1 %45, label %46, label %48, !prof !11

46:                                               ; preds = %43
  %47 = add nsw i32 %44, -1
  store i32 %47, ptr %1, align 4, !tbaa !8
  br label %lean_dec.exit28

48:                                               ; preds = %43
  %.not.i39 = icmp eq i32 %44, 0
  br i1 %.not.i39, label %lean_dec.exit28, label %49

49:                                               ; preds = %48
  tail call void @lean_dec_ref_cold(ptr noundef nonnull %1) #4
  br label %lean_dec.exit28

lean_dec.exit28:                                  ; preds = %49, %48, %46, %42
  br i1 %.not48, label %50, label %lean_dec.exit30

50:                                               ; preds = %lean_dec.exit28
  %51 = load i32, ptr %0, align 4, !tbaa !8
  %52 = icmp sgt i32 %51, 1
  br i1 %52, label %53, label %55, !prof !11

53:                                               ; preds = %50
  %54 = add nsw i32 %51, -1
  store i32 %54, ptr %0, align 4, !tbaa !8
  br label %lean_dec.exit30

55:                                               ; preds = %50
  %.not.i41 = icmp eq i32 %51, 0
  br i1 %.not.i41, label %lean_dec.exit30, label %56

56:                                               ; preds = %55
  tail call void @lean_dec_ref_cold(ptr noundef nonnull %0) #4
  br label %lean_dec.exit30

lean_dec.exit30:                                  ; preds = %lean_dec.exit28, %53, %55, %56, %lean_dec.exit31, %37, %39, %40, %lean_dec.exit29
  %.1 = phi i8 [ %41, %lean_dec.exit29 ], [ 0, %40 ], [ 0, %39 ], [ 0, %37 ], [ 0, %lean_dec.exit31 ], [ %22, %56 ], [ %22, %55 ], [ %22, %53 ], [ %22, %lean_dec.exit28 ]
  ret i8 %.1
}